target datalayout = "e-m:e-p270:32:32-p271:32:32-p272:64:64-i64:64-i128:128-f80:128-n8:16:32:64-S128"
target triple = "x86_64-pc-linux-gnu"

%"struct.faiss::VectorDistance.3" = type { i64, float }
%"struct.faiss::FlatCodesDistanceComputer" = type { %"struct.faiss::DistanceComputer", ptr, i64 }
%"struct.faiss::DistanceComputer" = type { ptr }
%"struct.faiss::(anonymous namespace)::ExtraDistanceComputer.11" = type { %"struct.faiss::FlatCodesDistanceComputer", %"struct.faiss::VectorDistance.3", i64, ptr, ptr }

; Function Attrs: mustprogress nounwind uwtable
define linkonce_odr noundef float @_ZNK5faiss14VectorDistanceILNS_10MetricTypeE21EEclEPKfS4_(ptr noundef nonnull align 8 dereferenceable(16) %0, ptr noundef %1, ptr noundef %2) #4 comdat align 2 {
  %4 = alloca ptr, align 8
  %5 = alloca ptr, align 8
  %6 = alloca ptr, align 8
  %7 = alloca float, align 4
  %8 = alloca float, align 4
  %9 = alloca i64, align 8
  %10 = alloca float, align 4
  %11 = alloca float, align 4
  store ptr %0, ptr %4, align 8
  store ptr %1, ptr %5, align 8
  store ptr %2, ptr %6, align 8
  %12 = load ptr, ptr %4, align 8
  store float 0.000000e+00, ptr %7, align 4
  store float 0.000000e+00, ptr %8, align 4
  store i64 0, ptr %9, align 8
  br label %13

13:                                               ; preds = %45, %3
  %14 = load i64, ptr %9, align 8
  %15 = getelementptr inbounds %"struct.faiss::VectorDistance.3", ptr %12, i32 0, i32 0
  %16 = load i64, ptr %15, align 8
  %17 = icmp ult i64 %14, %16
  br i1 %17, label %18, label %48

18:                                               ; preds = %13
  %19 = load ptr, ptr %5, align 8
  %20 = load i64, ptr %9, align 8
  %21 = getelementptr inbounds float, ptr %19, i64 %20
  %22 = load float, ptr %21, align 4
  store float %22, ptr %10, align 4
  %23 = load ptr, ptr %6, align 8
  %24 = load i64, ptr %9, align 8
  %25 = getelementptr inbounds float, ptr %23, i64 %24
  %26 = load float, ptr %25, align 4
  store float %26, ptr %11, align 4
  %27 = load float, ptr %10, align 4
  %28 = load float, ptr %11, align 4
  %29 = fsub float %27, %28
  %30 = fpext float %29 to double
  %31 = call double @llvm.fabs.f64(double %30)
  %32 = load float, ptr %7, align 4
  %33 = fpext float %32 to double
  %34 = fadd double %33, %31
  %35 = fptrunc double %34 to float
  store float %35, ptr %7, align 4
  %36 = load float, ptr %10, align 4
  %37 = load float, ptr %11, align 4
  %38 = fadd float %36, %37
  %39 = fpext float %38 to double
  %40 = call double @llvm.fabs.f64(double %39)
  %41 = load float, ptr %8, align 4
  %42 = fpext float %41 to double
  %43 = fadd double %42, %40
  %44 = fptrunc double %43 to float
  store float %44, ptr %8, align 4
  br label %45

45:                                               ; preds = %18
  %46 = load i64, ptr %9, align 8
  %47 = add i64 %46, 1
  store i64 %47, ptr %9, align 8
  br label %13, !llvm.loop !30

48:                                               ; preds = %13
  %49 = load float, ptr %7, align 4
  %50 = load float, ptr %8, align 4
  %51 = fdiv float %49, %50
  ret float %51
}

; Function Attrs: mustprogress nounwind uwtable
define internal noundef float @_ZN5faiss12_GLOBAL__N_121ExtraDistanceComputerINS_14VectorDistanceILNS_10MetricTypeE21EEEE16distance_to_codeEPKh(ptr noundef nonnull align 8 dereferenceable(64) %0, ptr noundef %1) unnamed_addr #4 align 2 {
  %3 = alloca ptr, align 8
  %4 = alloca ptr, align 8
  store ptr %0, ptr %3, align 8
  store ptr %1, ptr %4, align 8
  %5 = load ptr, ptr %3, align 8
  %6 = getelementptr inbounds %"struct.faiss::(anonymous namespace)::ExtraDistanceComputer.11", ptr %5, i32 0, i32 1
  %7 = getelementptr inbounds %"struct.faiss::(anonymous namespace)::ExtraDistanceComputer.11", ptr %5, i32 0, i32 3
  %8 = load ptr, ptr %7, align 8
  %9 = load ptr, ptr %4, align 8
  %10 = call noundef float @_ZNK5faiss14VectorDistanceILNS_10MetricTypeE21EEclEPKfS4_(ptr noundef nonnull align 8 dereferenceable(16) %6, ptr noundef %8, ptr noundef %9)
  ret float %10
}