; Function Attrs: mustprogress nofree norecurse nosync nounwind willreturn memory(read, inaccessiblemem: none) uwtable
define internal noundef float @_ZN5faiss12_GLOBAL__N_121ExtraDistanceComputerINS_14VectorDistanceILNS_10MetricTypeE21EEEE16distance_to_codeEPKh(ptr nocapture noundef nonnull readonly align 8 dereferenceable(64) %0, ptr nocapture noundef readonly %1) unnamed_addr #17 align 2 {
  %3 = getelementptr inbounds i8, ptr %0, i64 24
  %4 = getelementptr inbounds i8, ptr %0, i64 48
  %5 = load ptr, ptr %4, align 8
  %6 = load i64, ptr %3, align 8
  %.not.i = icmp eq i64 %6, 0
  br i1 %.not.i, label %_ZNK5faiss14VectorDistanceILNS_10MetricTypeE21EEclEPKfS4_.exit, label %.lr.ph.i

.lr.ph.i:                                         ; preds = %2, %.lr.ph.i
  %.01516.i = phi i64 [ %18, %.lr.ph.i ], [ 0, %2 ]
  %7 = phi <2 x float> [ %17, %.lr.ph.i ], [ zeroinitializer, %2 ]
  %8 = getelementptr inbounds float, ptr %5, i64 %.01516.i
  %9 = load float, ptr %8, align 4
  %10 = getelementptr inbounds float, ptr %1, i64 %.01516.i
  %11 = load float, ptr %10, align 4
  %12 = fsub float %9, %11
  %13 = fadd float %9, %11
  %14 = insertelement <2 x float> poison, float %12, i64 0
  %15 = insertelement <2 x float> %14, float %13, i64 1
  %16 = tail call <2 x float> @llvm.fabs.v2f32(<2 x float> %15)
  %17 = fadd <2 x float> %7, %16
  %18 = add nuw i64 %.01516.i, 1
  %exitcond.not.i = icmp eq i64 %18, %6
  br i1 %exitcond.not.i, label %._crit_edge.loopexit.i, label %.lr.ph.i, !llvm.loop !26

._crit_edge.loopexit.i:                           ; preds = %.lr.ph.i
  %19 = extractelement <2 x float> %17, i64 0
  %20 = extractelement <2 x float> %17, i64 1
  %21 = fdiv float %19, %20
  br label %_ZNK5faiss14VectorDistanceILNS_10MetricTypeE21EEclEPKfS4_.exit

_ZNK5faiss14VectorDistanceILNS_10MetricTypeE21EEclEPKfS4_.exit: ; preds = %2, %._crit_edge.loopexit.i
  %22 = phi float [ 0x7FF8000000000000, %2 ], [ %21, %._crit_edge.loopexit.i ]
  ret float %22
}